#include <math.h>
#include <stdio.h>
#include <stdlib.h>
#include <string.h>


	int main()
	{
		int n;
		scanf("%d",&n);
		int a[300];
		char c=',';
		int i,j;
		for(i=0;i<n;i++)
		{
			scanf("%d",&a[i]);
		}
			for(i=0;i<n;i++)
			{
				for(j=0;j<i;j++)
				{
					if(a[i]==a[j])
					{
						a[i]=0;
						break;
					}
				}
				if(a[i]!=0)
				{
					if(i==0)
					{
						printf("%d",a[i]);
					}
					else
					{
					printf("%c%d",c,a[i]);
					}
				
				}
			}
			return 0;
	}
		
			
			
							