; ModuleID = 'source-C-CXX/52/1681.c'
source_filename = "source-C-CXX/52/1681.c"
target datalayout = "e-m:e-p270:32:32-p271:32:32-p272:64:64-i64:64-f80:128-n8:16:32:64-S128"
target triple = "x86_64-pc-linux-gnu"

@.str = private unnamed_addr constant [3 x i8] c"%d\00", align 1
@.str.1 = private unnamed_addr constant [5 x i8] c"%c%d\00", align 1

; Function Attrs: nofree nounwind sspstrong uwtable
define dso_local i32 @main() local_unnamed_addr #0 {
  %1 = alloca i32, align 4
  %2 = alloca [300 x i32], align 16
  %3 = bitcast i32* %1 to i8*
  call void @llvm.lifetime.start.p0i8(i64 4, i8* nonnull %3) #3
  %4 = call i32 (i8*, ...) @__isoc99_scanf(i8* getelementptr inbounds ([3 x i8], [3 x i8]* @.str, i64 0, i64 0), i32* nonnull %1)
  %5 = bitcast [300 x i32]* %2 to i8*
  call void @llvm.lifetime.start.p0i8(i64 1200, i8* nonnull %5) #3
  %6 = load i32, i32* %1, align 4, !tbaa !5
  %7 = icmp sgt i32 %6, 0
  br i1 %7, label %12, label %51

8:                                                ; preds = %12
  %9 = icmp sgt i32 %17, 0
  br i1 %9, label %10, label %51

10:                                               ; preds = %8
  %11 = getelementptr inbounds [300 x i32], [300 x i32]* %2, i64 0, i64 0
  br label %20

12:                                               ; preds = %0, %12
  %13 = phi i64 [ %16, %12 ], [ 0, %0 ]
  %14 = getelementptr inbounds [300 x i32], [300 x i32]* %2, i64 0, i64 %13
  %15 = call i32 (i8*, ...) @__isoc99_scanf(i8* getelementptr inbounds ([3 x i8], [3 x i8]* @.str, i64 0, i64 0), i32* nonnull %14)
  %16 = add nuw nsw i64 %13, 1
  %17 = load i32, i32* %1, align 4, !tbaa !5
  %18 = sext i32 %17 to i64
  %19 = icmp slt i64 %16, %18
  br i1 %19, label %12, label %8, !llvm.loop !9

20:                                               ; preds = %10, %46
  %21 = phi i64 [ 0, %10 ], [ %47, %46 ]
  %22 = icmp eq i64 %21, 0
  br i1 %22, label %37, label %23

23:                                               ; preds = %20
  %24 = getelementptr inbounds [300 x i32], [300 x i32]* %2, i64 0, i64 %21
  %25 = load i32, i32* %24, align 4, !tbaa !5
  br label %28

26:                                               ; preds = %28
  %27 = icmp eq i64 %33, %21
  br i1 %27, label %35, label %28, !llvm.loop !11

28:                                               ; preds = %23, %26
  %29 = phi i64 [ 0, %23 ], [ %33, %26 ]
  %30 = getelementptr inbounds [300 x i32], [300 x i32]* %2, i64 0, i64 %29
  %31 = load i32, i32* %30, align 4, !tbaa !5
  %32 = icmp eq i32 %25, %31
  %33 = add nuw nsw i64 %29, 1
  br i1 %32, label %34, label %26

34:                                               ; preds = %28
  store i32 0, i32* %24, align 4, !tbaa !5
  br label %46

35:                                               ; preds = %26
  %36 = icmp eq i32 %25, 0
  br i1 %36, label %46, label %40

37:                                               ; preds = %20
  %38 = load i32, i32* %11, align 16, !tbaa !5
  %39 = icmp eq i32 %38, 0
  br i1 %39, label %46, label %41

40:                                               ; preds = %35
  br i1 %22, label %41, label %44

41:                                               ; preds = %37, %40
  %42 = phi i32 [ %25, %40 ], [ %38, %37 ]
  %43 = call i32 (i8*, ...) @printf(i8* nonnull dereferenceable(1) getelementptr inbounds ([3 x i8], [3 x i8]* @.str, i64 0, i64 0), i32 %42)
  br label %46

44:                                               ; preds = %40
  %45 = call i32 (i8*, ...) @printf(i8* nonnull dereferenceable(1) getelementptr inbounds ([5 x i8], [5 x i8]* @.str.1, i64 0, i64 0), i32 44, i32 %25)
  br label %46

46:                                               ; preds = %37, %34, %35, %44, %41
  %47 = add nuw nsw i64 %21, 1
  %48 = load i32, i32* %1, align 4, !tbaa !5
  %49 = sext i32 %48 to i64
  %50 = icmp slt i64 %47, %49
  br i1 %50, label %20, label %51, !llvm.loop !12

51:                                               ; preds = %46, %0, %8
  call void @llvm.lifetime.end.p0i8(i64 1200, i8* nonnull %5) #3
  call void @llvm.lifetime.end.p0i8(i64 4, i8* nonnull %3) #3
  ret i32 0
}

; Function Attrs: argmemonly mustprogress nofree nosync nounwind willreturn
declare void @llvm.lifetime.start.p0i8(i64 immarg, i8* nocapture) #1

; Function Attrs: nofree nounwind
declare noundef i32 @__isoc99_scanf(i8* nocapture noundef readonly, ...) local_unnamed_addr #2

; Function Attrs: nofree nounwind
declare noundef i32 @printf(i8* nocapture noundef readonly, ...) local_unnamed_addr #2

; Function Attrs: argmemonly mustprogress nofree nosync nounwind willreturn
declare void @llvm.lifetime.end.p0i8(i64 immarg, i8* nocapture) #1


!llvm.module.flags = !{!0, !1, !2, !3}
!llvm.ident = !{!4}

!0 = !{i32 1, !"wchar_size", i32 4}
!1 = !{i32 7, !"PIC Level", i32 2}
!2 = !{i32 7, !"PIE Level", i32 2}
!3 = !{i32 7, !"uwtable", i32 1}
!4 = !{!"clang version 13.0.0"}
!5 = !{!6, !6, i64 0}
!6 = !{!"int", !7, i64 0}
!7 = !{!"omnipotent char", !8, i64 0}
!8 = !{!"Simple C/C++ TBAA"}
!9 = distinct !{!9, !10}
!10 = !{!"llvm.loop.mustprogress"}
!11 = distinct !{!11, !10}
!12 = distinct !{!12, !10}
